target datalayout = "e-m:e-p270:32:32-p271:32:32-p272:64:64-i64:64-i128:128-f80:128-n8:16:32:64-S128"
target triple = "x86_64-pc-linux-gnu"

%struct._MRIStepInnerStepper = type { ptr, ptr, ptr, ptr, i32, i32, i32, double, double, ptr, ptr, i64, i64, i64, i64 }

@.str.98 = private unnamed_addr constant [26 x i8] c"MRIStepInnerStepper Mem:\0A\00", align 1
@.str.99 = private unnamed_addr constant [42 x i8] c"MRIStepInnerStepper: inner_nforcing = %i\0A\00", align 1

; Function Attrs: nounwind uwtable
define void @mriStepInnerStepper_PrintMem(ptr noundef %0, ptr noundef %1) #0 {
  %3 = alloca ptr, align 8
  %4 = alloca ptr, align 8
  store ptr %0, ptr %3, align 8, !tbaa !11
  store ptr %1, ptr %4, align 8, !tbaa !201
  %5 = load ptr, ptr %3, align 8, !tbaa !11
  %6 = icmp eq ptr %5, null
  br i1 %6, label %7, label %8

7:                                                ; preds = %2
  br label %16

8:                                                ; preds = %2
  %9 = load ptr, ptr %4, align 8, !tbaa !201
  %10 = call i32 (ptr, ptr, ...) @fprintf(ptr noundef %9, ptr noundef @.str.98) #8
  %11 = load ptr, ptr %4, align 8, !tbaa !201
  %12 = load ptr, ptr %3, align 8, !tbaa !11
  %13 = getelementptr inbounds nuw %struct._MRIStepInnerStepper, ptr %12, i32 0, i32 4
  %14 = load i32, ptr %13, align 8, !tbaa !230
  %15 = call i32 (ptr, ptr, ...) @fprintf(ptr noundef %11, ptr noundef @.str.99, i32 noundef %14) #8
  br label %16

16:                                               ; preds = %8, %7
  ret void
}