; Function Attrs: nofree nounwind uwtable
define void @mriStepInnerStepper_PrintMem(ptr noundef readonly captures(address_is_null) %0, ptr noundef captures(none) %1) local_unnamed_addr #7 {
  %3 = icmp eq ptr %0, null
  br i1 %3, label %9, label %4

4:                                                ; preds = %2
  %5 = tail call i64 @fwrite(ptr nonnull @.str.98, i64 25, i64 1, ptr %1)
  %6 = getelementptr inbounds nuw i8, ptr %0, i64 32
  %7 = load i32, ptr %6, align 8, !tbaa !213
  %8 = tail call i32 (ptr, ptr, ...) @fprintf(ptr noundef %1, ptr noundef nonnull @.str.99, i32 noundef %7) #14
  br label %9

9:                                                ; preds = %2, %4
  ret void
}